target datalayout = "e-m:e-p270:32:32-p271:32:32-p272:64:64-i64:64-i128:128-f80:128-n8:16:32:64-S128"
target triple = "x86_64-unknown-linux-gnu"

%"class.std::ios_base::Init" = type { i8 }
%"class.folly::Range" = type { ptr, ptr }
%"struct.std::pair" = type { i32, i32 }
%"class.proxygen::HPACKHeaderName" = type { ptr }

$_ZN8proxygen22NoPathIndexingStrategyC2Ev = comdat any

$_ZN8proxygen22HeaderIndexingStrategyC2Ev = comdat any

$_ZN8proxygen22NoPathIndexingStrategyD2Ev = comdat any

$_ZN8proxygen22NoPathIndexingStrategyD0Ev = comdat any

$_ZNK8proxygen22NoPathIndexingStrategy11indexHeaderERKNS_15HPACKHeaderNameEN5folly5RangeIPKcEEb = comdat any

$_ZNK8proxygen22HeaderIndexingStrategy16getHuffmanLimitsEv = comdat any

$_ZN8proxygen22HeaderIndexingStrategyD2Ev = comdat any

$_ZNK8proxygen15HPACKHeaderName13getHeaderCodeEv = comdat any

$_ZN8proxygen17HTTPCommonHeaders20getCodeFromTableNameEPKNSt7__cxx1112basic_stringIcSt11char_traitsIcESaIcEEENS_25HTTPCommonHeaderTableTypeE = comdat any

$_ZNSt14numeric_limitsIjE3maxEv = comdat any

$_ZNSt4pairIjjEC2IijTnNSt9enable_ifIXaaclsr5_PCCPE22_MoveConstructiblePairIT_T0_EEclsr5_PCCPE30_ImplicitlyMoveConvertiblePairIS3_S4_EEEbE4typeELb1EEEOS3_OS4_ = comdat any

$_ZTVN8proxygen22NoPathIndexingStrategyE = comdat any

$_ZTSN8proxygen22NoPathIndexingStrategyE = comdat any

$_ZTIN8proxygen22NoPathIndexingStrategyE = comdat any

@_ZStL8__ioinit = internal global %"class.std::ios_base::Init" zeroinitializer, align 1
@__dso_handle = external hidden global i8
@_ZZN8proxygen22NoPathIndexingStrategy11getInstanceEvE8instance = internal global ptr null, align 8
@_ZGVZN8proxygen22NoPathIndexingStrategy11getInstanceEvE8instance = internal global i64 0, align 8
@_ZTVN8proxygen22NoPathIndexingStrategyE = linkonce_odr unnamed_addr constant { [6 x ptr] } { [6 x ptr] [ptr null, ptr @_ZTIN8proxygen22NoPathIndexingStrategyE, ptr @_ZN8proxygen22NoPathIndexingStrategyD2Ev, ptr @_ZN8proxygen22NoPathIndexingStrategyD0Ev, ptr @_ZNK8proxygen22NoPathIndexingStrategy11indexHeaderERKNS_15HPACKHeaderNameEN5folly5RangeIPKcEEb, ptr @_ZNK8proxygen22HeaderIndexingStrategy16getHuffmanLimitsEv] }, comdat, align 8
@_ZTVN10__cxxabiv120__si_class_type_infoE = external global [0 x ptr]
@_ZTSN8proxygen22NoPathIndexingStrategyE = linkonce_odr constant [36 x i8] c"N8proxygen22NoPathIndexingStrategyE\00", comdat, align 1
@_ZTIN8proxygen22HeaderIndexingStrategyE = external constant ptr
@_ZTIN8proxygen22NoPathIndexingStrategyE = linkonce_odr constant { ptr, ptr, ptr } { ptr getelementptr inbounds (ptr, ptr @_ZTVN10__cxxabiv120__si_class_type_infoE, i64 2), ptr @_ZTSN8proxygen22NoPathIndexingStrategyE, ptr @_ZTIN8proxygen22HeaderIndexingStrategyE }, comdat, align 8
@_ZTVN8proxygen22HeaderIndexingStrategyE = external unnamed_addr constant { [6 x ptr] }, align 8
@llvm.global_ctors = appending global [1 x { i32, ptr, ptr }] [{ i32, ptr, ptr } { i32 65535, ptr @_GLOBAL__sub_I_NoPathIndexingStrategy.cpp, ptr null }]

; Function Attrs: uwtable
define internal void @__cxx_global_var_init() #0 section ".text.startup" {
entry:
  call void @_ZNSt8ios_base4InitC1Ev(ptr noundef nonnull align 1 dereferenceable(1) @_ZStL8__ioinit)
  %0 = call i32 @__cxa_atexit(ptr @_ZNSt8ios_base4InitD1Ev, ptr @_ZStL8__ioinit, ptr @__dso_handle) #3
  ret void
}

declare void @_ZNSt8ios_base4InitC1Ev(ptr noundef nonnull align 1 dereferenceable(1)) unnamed_addr #1

; Function Attrs: nounwind
declare void @_ZNSt8ios_base4InitD1Ev(ptr noundef nonnull align 1 dereferenceable(1)) unnamed_addr #2

; Function Attrs: nounwind
declare i32 @__cxa_atexit(ptr, ptr, ptr) #3

; Function Attrs: mustprogress uwtable
define noundef ptr @_ZN8proxygen22NoPathIndexingStrategy11getInstanceEv() #4 align 2 personality ptr @__gxx_personality_v0 {
entry:
  %exn.slot = alloca ptr, align 8
  %ehselector.slot = alloca i32, align 4
  %0 = load atomic i8, ptr @_ZGVZN8proxygen22NoPathIndexingStrategy11getInstanceEvE8instance acquire, align 8
  %guard.uninitialized = icmp eq i8 %0, 0
  br i1 %guard.uninitialized, label %init.check, label %init.end, !prof !4

init.check:                                       ; preds = %entry
  %1 = call i32 @__cxa_guard_acquire(ptr @_ZGVZN8proxygen22NoPathIndexingStrategy11getInstanceEvE8instance) #3
  %tobool = icmp ne i32 %1, 0
  br i1 %tobool, label %init, label %init.end

init:                                             ; preds = %init.check
  %call = invoke noalias noundef nonnull ptr @_Znwm(i64 noundef 8) #9
          to label %invoke.cont unwind label %lpad

invoke.cont:                                      ; preds = %init
  invoke void @_ZN8proxygen22NoPathIndexingStrategyC2Ev(ptr noundef nonnull align 8 dereferenceable(8) %call)
          to label %invoke.cont2 unwind label %lpad1

invoke.cont2:                                     ; preds = %invoke.cont
  store ptr %call, ptr @_ZZN8proxygen22NoPathIndexingStrategy11getInstanceEvE8instance, align 8
  call void @__cxa_guard_release(ptr @_ZGVZN8proxygen22NoPathIndexingStrategy11getInstanceEvE8instance) #3
  br label %init.end

init.end:                                         ; preds = %invoke.cont2, %init.check, %entry
  %2 = load ptr, ptr @_ZZN8proxygen22NoPathIndexingStrategy11getInstanceEvE8instance, align 8
  ret ptr %2

lpad:                                             ; preds = %init
  %3 = landingpad { ptr, i32 }
          cleanup
  %4 = extractvalue { ptr, i32 } %3, 0
  store ptr %4, ptr %exn.slot, align 8
  %5 = extractvalue { ptr, i32 } %3, 1
  store i32 %5, ptr %ehselector.slot, align 4
  br label %ehcleanup

lpad1:                                            ; preds = %invoke.cont
  %6 = landingpad { ptr, i32 }
          cleanup
  %7 = extractvalue { ptr, i32 } %6, 0
  store ptr %7, ptr %exn.slot, align 8
  %8 = extractvalue { ptr, i32 } %6, 1
  store i32 %8, ptr %ehselector.slot, align 4
  call void @_ZdlPv(ptr noundef %call) #10
  br label %ehcleanup

ehcleanup:                                        ; preds = %lpad1, %lpad
  call void @__cxa_guard_abort(ptr @_ZGVZN8proxygen22NoPathIndexingStrategy11getInstanceEvE8instance) #3
  br label %eh.resume

eh.resume:                                        ; preds = %ehcleanup
  %exn = load ptr, ptr %exn.slot, align 8
  %sel = load i32, ptr %ehselector.slot, align 4
  %lpad.val = insertvalue { ptr, i32 } poison, ptr %exn, 0
  %lpad.val3 = insertvalue { ptr, i32 } %lpad.val, i32 %sel, 1
  resume { ptr, i32 } %lpad.val3
}

; Function Attrs: nounwind
declare i32 @__cxa_guard_acquire(ptr) #3

; Function Attrs: nobuiltin allocsize(0)
declare noundef nonnull ptr @_Znwm(i64 noundef) #5

declare i32 @__gxx_personality_v0(...)

; Function Attrs: mustprogress uwtable
define linkonce_odr void @_ZN8proxygen22NoPathIndexingStrategyC2Ev(ptr noundef nonnull align 8 dereferenceable(8) %this) unnamed_addr #4 comdat align 2 {
entry:
  %this.addr = alloca ptr, align 8
  store ptr %this, ptr %this.addr, align 8
  %this1 = load ptr, ptr %this.addr, align 8
  call void @_ZN8proxygen22HeaderIndexingStrategyC2Ev(ptr noundef nonnull align 8 dereferenceable(8) %this1)
  store ptr getelementptr inbounds ({ [6 x ptr] }, ptr @_ZTVN8proxygen22NoPathIndexingStrategyE, i32 0, i32 0, i32 2), ptr %this1, align 8
  ret void
}

; Function Attrs: nobuiltin nounwind
declare void @_ZdlPv(ptr noundef) #6

; Function Attrs: nounwind
declare void @__cxa_guard_abort(ptr) #3

; Function Attrs: nounwind
declare void @__cxa_guard_release(ptr) #3

; Function Attrs: mustprogress nounwind uwtable
define linkonce_odr void @_ZN8proxygen22HeaderIndexingStrategyC2Ev(ptr noundef nonnull align 8 dereferenceable(8) %this) unnamed_addr #7 comdat align 2 {
entry:
  %this.addr = alloca ptr, align 8
  store ptr %this, ptr %this.addr, align 8
  %this1 = load ptr, ptr %this.addr, align 8
  store ptr getelementptr inbounds ({ [6 x ptr] }, ptr @_ZTVN8proxygen22HeaderIndexingStrategyE, i32 0, i32 0, i32 2), ptr %this1, align 8
  ret void
}

; Function Attrs: mustprogress nounwind uwtable
define linkonce_odr void @_ZN8proxygen22NoPathIndexingStrategyD2Ev(ptr noundef nonnull align 8 dereferenceable(8) %this) unnamed_addr #7 comdat align 2 {
entry:
  %this.addr = alloca ptr, align 8
  store ptr %this, ptr %this.addr, align 8
  %this1 = load ptr, ptr %this.addr, align 8
  call void @_ZN8proxygen22HeaderIndexingStrategyD2Ev(ptr noundef nonnull align 8 dereferenceable(8) %this1) #3
  ret void
}

; Function Attrs: mustprogress nounwind uwtable
define linkonce_odr void @_ZN8proxygen22NoPathIndexingStrategyD0Ev(ptr noundef nonnull align 8 dereferenceable(8) %this) unnamed_addr #7 comdat align 2 {
entry:
  %this.addr = alloca ptr, align 8
  store ptr %this, ptr %this.addr, align 8
  %this1 = load ptr, ptr %this.addr, align 8
  call void @_ZN8proxygen22NoPathIndexingStrategyD2Ev(ptr noundef nonnull align 8 dereferenceable(8) %this1) #3
  call void @_ZdlPv(ptr noundef %this1) #10
  ret void
}

; Function Attrs: mustprogress uwtable
define linkonce_odr noundef zeroext i1 @_ZNK8proxygen22NoPathIndexingStrategy11indexHeaderERKNS_15HPACKHeaderNameEN5folly5RangeIPKcEEb(ptr noundef nonnull align 8 dereferenceable(8) %this, ptr noundef nonnull align 8 dereferenceable(8) %name, ptr %value.coerce0, ptr %value.coerce1, i1 noundef zeroext %0) unnamed_addr #4 comdat align 2 {
entry:
  %retval = alloca i1, align 1
  %value = alloca %"class.folly::Range", align 8
  %this.addr = alloca ptr, align 8
  %name.addr = alloca ptr, align 8
  %.addr = alloca i8, align 1
  %agg.tmp = alloca %"class.folly::Range", align 8
  %1 = getelementptr inbounds { ptr, ptr }, ptr %value, i32 0, i32 0
  store ptr %value.coerce0, ptr %1, align 8
  %2 = getelementptr inbounds { ptr, ptr }, ptr %value, i32 0, i32 1
  store ptr %value.coerce1, ptr %2, align 8
  store ptr %this, ptr %this.addr, align 8
  store ptr %name, ptr %name.addr, align 8
  %frombool = zext i1 %0 to i8
  store i8 %frombool, ptr %.addr, align 1
  %this1 = load ptr, ptr %this.addr, align 8
  %3 = load ptr, ptr %name.addr, align 8
  %call = call noundef zeroext i8 @_ZNK8proxygen15HPACKHeaderName13getHeaderCodeEv(ptr noundef nonnull align 8 dereferenceable(8) %3)
  %conv = zext i8 %call to i32
  %cmp = icmp eq i32 %conv, 4
  br i1 %cmp, label %if.then, label %if.else

if.then:                                          ; preds = %entry
  store i1 false, ptr %retval, align 1
  br label %return

if.else:                                          ; preds = %entry
  %4 = load ptr, ptr %name.addr, align 8
  call void @llvm.memcpy.p0.p0.i64(ptr align 8 %agg.tmp, ptr align 8 %value, i64 16, i1 false)
  %5 = getelementptr inbounds { ptr, ptr }, ptr %agg.tmp, i32 0, i32 0
  %6 = load ptr, ptr %5, align 8
  %7 = getelementptr inbounds { ptr, ptr }, ptr %agg.tmp, i32 0, i32 1
  %8 = load ptr, ptr %7, align 8
  %call2 = call noundef zeroext i1 @_ZNK8proxygen22HeaderIndexingStrategy11indexHeaderERKNS_15HPACKHeaderNameEN5folly5RangeIPKcEEb(ptr noundef nonnull align 8 dereferenceable(8) %this1, ptr noundef nonnull align 8 dereferenceable(8) %4, ptr %6, ptr %8, i1 noundef zeroext false)
  store i1 %call2, ptr %retval, align 1
  br label %return

return:                                           ; preds = %if.else, %if.then
  %9 = load i1, ptr %retval, align 1
  ret i1 %9
}

; Function Attrs: mustprogress uwtable
define linkonce_odr i64 @_ZNK8proxygen22HeaderIndexingStrategy16getHuffmanLimitsEv(ptr noundef nonnull align 8 dereferenceable(8) %this) unnamed_addr #4 comdat align 2 {
entry:
  %retval = alloca %"struct.std::pair", align 4
  %this.addr = alloca ptr, align 8
  %ref.tmp = alloca i32, align 4
  %ref.tmp2 = alloca i32, align 4
  store ptr %this, ptr %this.addr, align 8
  store i32 0, ptr %ref.tmp, align 4
  %call = call noundef i32 @_ZNSt14numeric_limitsIjE3maxEv() #3
  store i32 %call, ptr %ref.tmp2, align 4
  call void @_ZNSt4pairIjjEC2IijTnNSt9enable_ifIXaaclsr5_PCCPE22_MoveConstructiblePairIT_T0_EEclsr5_PCCPE30_ImplicitlyMoveConvertiblePairIS3_S4_EEEbE4typeELb1EEEOS3_OS4_(ptr noundef nonnull align 4 dereferenceable(8) %retval, ptr noundef nonnull align 4 dereferenceable(4) %ref.tmp, ptr noundef nonnull align 4 dereferenceable(4) %ref.tmp2)
  %0 = load i64, ptr %retval, align 4
  ret i64 %0
}

; Function Attrs: mustprogress nounwind uwtable
define linkonce_odr void @_ZN8proxygen22HeaderIndexingStrategyD2Ev(ptr noundef nonnull align 8 dereferenceable(8) %this) unnamed_addr #7 comdat align 2 {
entry:
  %this.addr = alloca ptr, align 8
  store ptr %this, ptr %this.addr, align 8
  ret void
}

; Function Attrs: mustprogress uwtable
define linkonce_odr noundef zeroext i8 @_ZNK8proxygen15HPACKHeaderName13getHeaderCodeEv(ptr noundef nonnull align 8 dereferenceable(8) %this) #4 comdat align 2 {
entry:
  %this.addr = alloca ptr, align 8
  store ptr %this, ptr %this.addr, align 8
  %this1 = load ptr, ptr %this.addr, align 8
  %address_ = getelementptr inbounds %"class.proxygen::HPACKHeaderName", ptr %this1, i32 0, i32 0
  %0 = load ptr, ptr %address_, align 8
  %call = call noundef zeroext i8 @_ZN8proxygen17HTTPCommonHeaders20getCodeFromTableNameEPKNSt7__cxx1112basic_stringIcSt11char_traitsIcESaIcEEENS_25HTTPCommonHeaderTableTypeE(ptr noundef %0, i8 noundef zeroext 1)
  ret i8 %call
}

declare noundef zeroext i1 @_ZNK8proxygen22HeaderIndexingStrategy11indexHeaderERKNS_15HPACKHeaderNameEN5folly5RangeIPKcEEb(ptr noundef nonnull align 8 dereferenceable(8), ptr noundef nonnull align 8 dereferenceable(8), ptr, ptr, i1 noundef zeroext) unnamed_addr #1

; Function Attrs: nocallback nofree nounwind willreturn memory(argmem: readwrite)
declare void @llvm.memcpy.p0.p0.i64(ptr noalias nocapture writeonly, ptr noalias nocapture readonly, i64, i1 immarg) #8

; Function Attrs: mustprogress uwtable
define linkonce_odr noundef zeroext i8 @_ZN8proxygen17HTTPCommonHeaders20getCodeFromTableNameEPKNSt7__cxx1112basic_stringIcSt11char_traitsIcESaIcEEENS_25HTTPCommonHeaderTableTypeE(ptr noundef %headerName, i8 noundef zeroext %type) #4 comdat align 2 {
entry:
  %retval = alloca i8, align 1
  %headerName.addr = alloca ptr, align 8
  %type.addr = alloca i8, align 1
  %diff = alloca i64, align 8
  store ptr %headerName, ptr %headerName.addr, align 8
  store i8 %type, ptr %type.addr, align 1
  %0 = load ptr, ptr %headerName.addr, align 8
  %cmp = icmp eq ptr %0, null
  br i1 %cmp, label %if.then, label %if.else

if.then:                                          ; preds = %entry
  store i8 0, ptr %retval, align 1
  br label %return

if.else:                                          ; preds = %entry
  %1 = load ptr, ptr %headerName.addr, align 8
  %2 = load i8, ptr %type.addr, align 1
  %call = call noundef ptr @_ZN8proxygen17HTTPCommonHeaders17getPointerToTableB5cxx11ENS_25HTTPCommonHeaderTableTypeE(i8 noundef zeroext %2)
  %sub.ptr.lhs.cast = ptrtoint ptr %1 to i64
  %sub.ptr.rhs.cast = ptrtoint ptr %call to i64
  %sub.ptr.sub = sub i64 %sub.ptr.lhs.cast, %sub.ptr.rhs.cast
  %sub.ptr.div = sdiv exact i64 %sub.ptr.sub, 32
  store i64 %sub.ptr.div, ptr %diff, align 8
  %3 = load i64, ptr %diff, align 8
  %cmp1 = icmp sge i64 %3, 2
  br i1 %cmp1, label %land.lhs.true, label %if.else4

land.lhs.true:                                    ; preds = %if.else
  %4 = load i64, ptr %diff, align 8
  %cmp2 = icmp slt i64 %4, 89
  br i1 %cmp2, label %if.then3, label %if.else4

if.then3:                                         ; preds = %land.lhs.true
  %5 = load i64, ptr %diff, align 8
  %conv = trunc i64 %5 to i8
  store i8 %conv, ptr %retval, align 1
  br label %return

if.else4:                                         ; preds = %land.lhs.true, %if.else
  store i8 1, ptr %retval, align 1
  br label %return

return:                                           ; preds = %if.else4, %if.then3, %if.then
  %6 = load i8, ptr %retval, align 1
  ret i8 %6
}

declare noundef ptr @_ZN8proxygen17HTTPCommonHeaders17getPointerToTableB5cxx11ENS_25HTTPCommonHeaderTableTypeE(i8 noundef zeroext) #1

; Function Attrs: mustprogress nounwind uwtable
define linkonce_odr noundef i32 @_ZNSt14numeric_limitsIjE3maxEv() #7 comdat align 2 {
entry:
  ret i32 -1
}

; Function Attrs: mustprogress nounwind uwtable
define linkonce_odr void @_ZNSt4pairIjjEC2IijTnNSt9enable_ifIXaaclsr5_PCCPE22_MoveConstructiblePairIT_T0_EEclsr5_PCCPE30_ImplicitlyMoveConvertiblePairIS3_S4_EEEbE4typeELb1EEEOS3_OS4_(ptr noundef nonnull align 4 dereferenceable(8) %this, ptr noundef nonnull align 4 dereferenceable(4) %__x, ptr noundef nonnull align 4 dereferenceable(4) %__y) unnamed_addr #7 comdat align 2 {
entry:
  %this.addr = alloca ptr, align 8
  %__x.addr = alloca ptr, align 8
  %__y.addr = alloca ptr, align 8
  store ptr %this, ptr %this.addr, align 8
  store ptr %__x, ptr %__x.addr, align 8
  store ptr %__y, ptr %__y.addr, align 8
  %this1 = load ptr, ptr %this.addr, align 8
  %first = getelementptr inbounds %"struct.std::pair", ptr %this1, i32 0, i32 0
  %0 = load ptr, ptr %__x.addr, align 8
  %1 = load i32, ptr %0, align 4
  store i32 %1, ptr %first, align 4
  %second = getelementptr inbounds %"struct.std::pair", ptr %this1, i32 0, i32 1
  %2 = load ptr, ptr %__y.addr, align 8
  %3 = load i32, ptr %2, align 4
  store i32 %3, ptr %second, align 4
  ret void
}

; Function Attrs: uwtable
define internal void @_GLOBAL__sub_I_NoPathIndexingStrategy.cpp() #0 section ".text.startup" {
entry:
  call void @__cxx_global_var_init()
  ret void
}


!llvm.module.flags = !{!0, !1, !2, !3}

!0 = !{i32 1, !"wchar_size", i32 4}
!1 = !{i32 8, !"PIC Level", i32 2}
!2 = !{i32 7, !"uwtable", i32 2}
!3 = !{i32 7, !"frame-pointer", i32 2}
!4 = !{!"branch_weights", i32 1, i32 1048575}
